; Function Attrs: mustprogress uwtable
define internal void @_ZN12_GLOBAL__N_121DoHandshakeQueuesInitEv() #3 personality ptr @__gxx_personality_v0 {
invoke.cont4:
  %call = tail call noundef i64 @_Z31MaxNumberOfConcurrentHandshakesv()
  %call1 = tail call noalias noundef nonnull dereferenceable(48) ptr @_Znwm(i64 noundef 48) #20
  store i64 0, ptr %call1, align 8
  %queued_handshakes_.i = getelementptr inbounds i8, ptr %call1, i64 8
  %_M_prev.i.i.i.i.i.i = getelementptr inbounds i8, ptr %call1, i64 16
  store ptr %queued_handshakes_.i, ptr %_M_prev.i.i.i.i.i.i, align 8
  store ptr %queued_handshakes_.i, ptr %queued_handshakes_.i, align 8
  %_M_size.i.i.i.i.i.i = getelementptr inbounds i8, ptr %call1, i64 24
  %max_outstanding_handshakes_.i = getelementptr inbounds i8, ptr %call1, i64 40
  tail call void @llvm.memset.p0.i64(ptr noundef nonnull align 8 dereferenceable(16) %_M_size.i.i.i.i.i.i, i8 0, i64 16, i1 false)
  store i64 %call, ptr %max_outstanding_handshakes_.i, align 8
  store ptr %call1, ptr @_ZN12_GLOBAL__N_124g_client_handshake_queueE, align 8
  %call2 = tail call noalias noundef nonnull dereferenceable(48) ptr @_Znwm(i64 noundef 48) #20
  store i64 0, ptr %call2, align 8
  %queued_handshakes_.i3 = getelementptr inbounds i8, ptr %call2, i64 8
  %_M_prev.i.i.i.i.i.i4 = getelementptr inbounds i8, ptr %call2, i64 16
  store ptr %queued_handshakes_.i3, ptr %_M_prev.i.i.i.i.i.i4, align 8
  store ptr %queued_handshakes_.i3, ptr %queued_handshakes_.i3, align 8
  %_M_size.i.i.i.i.i.i5 = getelementptr inbounds i8, ptr %call2, i64 24
  %max_outstanding_handshakes_.i6 = getelementptr inbounds i8, ptr %call2, i64 40
  tail call void @llvm.memset.p0.i64(ptr noundef nonnull align 8 dereferenceable(16) %_M_size.i.i.i.i.i.i5, i8 0, i64 16, i1 false)
  store i64 %call, ptr %max_outstanding_handshakes_.i6, align 8
  store ptr %call2, ptr @_ZN12_GLOBAL__N_124g_server_handshake_queueE, align 8
  ret void
}